target datalayout = "e-m:e-p270:32:32-p271:32:32-p272:64:64-i64:64-i128:128-f80:128-n8:16:32:64-S128"
target triple = "x86_64-pc-linux-gnu"

%class.BuildContext = type { %class.rcContext.base, [28 x i64], [28 x i64], [1000 x ptr], i32, [8000 x i8], i32 }
%class.rcContext.base = type <{ ptr, i8, i8 }>

; Function Attrs: mustprogress uwtable
define dso_local void @_ZN12BuildContext11doStopTimerE12rcTimerLabel(ptr noundef nonnull align 8 dereferenceable(16472) %0, i32 noundef %1) unnamed_addr #0 align 2 {
  %3 = alloca ptr, align 8
  %4 = alloca i32, align 4
  %5 = alloca i64, align 8
  %6 = alloca i64, align 8
  store ptr %0, ptr %3, align 8
  store i32 %1, ptr %4, align 4
  %7 = load ptr, ptr %3, align 8
  %8 = call noundef i64 @_Z11getPerfTimev()
  store i64 %8, ptr %5, align 8
  %9 = load i64, ptr %5, align 8
  %10 = getelementptr inbounds %class.BuildContext, ptr %7, i32 0, i32 1
  %11 = load i32, ptr %4, align 4
  %12 = zext i32 %11 to i64
  %13 = getelementptr inbounds [28 x i64], ptr %10, i64 0, i64 %12
  %14 = load i64, ptr %13, align 8
  %15 = sub nsw i64 %9, %14
  store i64 %15, ptr %6, align 8
  %16 = getelementptr inbounds %class.BuildContext, ptr %7, i32 0, i32 2
  %17 = load i32, ptr %4, align 4
  %18 = zext i32 %17 to i64
  %19 = getelementptr inbounds [28 x i64], ptr %16, i64 0, i64 %18
  %20 = load i64, ptr %19, align 8
  %21 = icmp eq i64 %20, -1
  br i1 %21, label %22, label %28

22:                                               ; preds = %2
  %23 = load i64, ptr %6, align 8
  %24 = getelementptr inbounds %class.BuildContext, ptr %7, i32 0, i32 2
  %25 = load i32, ptr %4, align 4
  %26 = zext i32 %25 to i64
  %27 = getelementptr inbounds [28 x i64], ptr %24, i64 0, i64 %26
  store i64 %23, ptr %27, align 8
  br label %36

28:                                               ; preds = %2
  %29 = load i64, ptr %6, align 8
  %30 = getelementptr inbounds %class.BuildContext, ptr %7, i32 0, i32 2
  %31 = load i32, ptr %4, align 4
  %32 = zext i32 %31 to i64
  %33 = getelementptr inbounds [28 x i64], ptr %30, i64 0, i64 %32
  %34 = load i64, ptr %33, align 8
  %35 = add nsw i64 %34, %29
  store i64 %35, ptr %33, align 8
  br label %36

36:                                               ; preds = %28, %22
  ret void
}