; Function Attrs: mustprogress uwtable
define dso_local void @_ZN12BuildContext11doStopTimerE12rcTimerLabel(ptr nocapture noundef nonnull align 8 dereferenceable(16472) %0, i32 noundef %1) unnamed_addr #4 align 2 {
  %3 = tail call noundef i64 @_Z11getPerfTimev()
  %4 = getelementptr inbounds i8, ptr %0, i64 16
  %5 = zext i32 %1 to i64
  %6 = getelementptr inbounds [28 x i64], ptr %4, i64 0, i64 %5
  %7 = load i64, ptr %6, align 8
  %8 = sub i64 %3, %7
  %9 = getelementptr inbounds i8, ptr %0, i64 240
  %10 = getelementptr inbounds [28 x i64], ptr %9, i64 0, i64 %5
  %11 = load i64, ptr %10, align 8
  %12 = icmp eq i64 %11, -1
  %13 = select i1 %12, i64 0, i64 %11
  %storemerge = add nsw i64 %8, %13
  store i64 %storemerge, ptr %10, align 8
  ret void
}